target datalayout = "e-m:e-p270:32:32-p271:32:32-p272:64:64-i64:64-i128:128-f80:128-n8:16:32:64-S128"
target triple = "x86_64-pc-linux-gnu"

%struct.radix_process_st = type { i64, i64, i64, ptr, ptr, ptr, %struct.OSSL_TIME, ptr, i32, i32 }
%struct.OSSL_TIME = type { i64 }
%struct.terp_config_st = type { ptr, ptr, ptr, ptr, ptr, %struct.OSSL_TIME }
%struct.terp_st = type { %struct.terp_config_st, ptr, ptr, %struct.srdr_st, ptr, ptr, ptr, ptr, %struct.func_ctx_st, i64, i32, %struct.OSSL_TIME, %struct.OSSL_TIME }
%struct.srdr_st = type { ptr, ptr, ptr, ptr }
%struct.func_ctx_st = type { ptr, i32, i32 }

@cert_file = internal global ptr null, align 8
@key_file = internal global ptr null, align 8
@.str.42 = private unnamed_addr constant [29 x i8] c"../openssl/test/radix/terp.c\00", align 1
@.str.44 = private unnamed_addr constant [33 x i8] c"../openssl/test/radix/quic_ops.c\00", align 1
@.str.45 = private unnamed_addr constant [62 x i8] c"TERP_stk_pop(((fctx->terp)), &(((flags))), sizeof(((flags))))\00", align 1
@.str.46 = private unnamed_addr constant [60 x i8] c"TERP_stk_pop(((fctx->terp)), &(((name))), sizeof(((name))))\00", align 1
@.str.47 = private unnamed_addr constant [26 x i8] c"ctx = SSL_CTX_new(method)\00", align 1
@.str.48 = private unnamed_addr constant [87 x i8] c"SSL_CTX_set_domain_flags(ctx, SSL_DOMAIN_FLAG_MULTI_THREAD | SSL_DOMAIN_FLAG_BLOCKING)\00", align 1
@.str.49 = private unnamed_addr constant [34 x i8] c"ssl_ctx_configure(ctx, is_server)\00", align 1
@.str.50 = private unnamed_addr constant [29 x i8] c"ssl = SSL_new_domain(ctx, 0)\00", align 1
@check_pending_match = internal global i32 0, align 4
@.str.51 = private unnamed_addr constant [31 x i8] c"ssl = SSL_new_listener(ctx, 0)\00", align 1
@.str.52 = private unnamed_addr constant [19 x i8] c"ssl = SSL_new(ctx)\00", align 1
@.str.53 = private unnamed_addr constant [35 x i8] c"ssl_attach_bio_dgram(ssl, 0, NULL)\00", align 1
@.str.54 = private unnamed_addr constant [39 x i8] c"RADIX_PROCESS_set_ssl(RP(), name, ssl)\00", align 1
@radix_process = internal global %struct.radix_process_st zeroinitializer, align 8
@.str.55 = private unnamed_addr constant [30 x i8] c"terp->stk_end - terp->stk_cur\00", align 1
@.str.56 = private unnamed_addr constant [8 x i8] c"buf_len\00", align 1
@.str.57 = private unnamed_addr constant [49 x i8] c"ossl_quic_set_diag_title(ctx, \22quic_radix_test\22)\00", align 1
@.str.58 = private unnamed_addr constant [16 x i8] c"quic_radix_test\00", align 1
@.str.59 = private unnamed_addr constant [63 x i8] c"SSL_CTX_use_certificate_file(ctx, cert_file, SSL_FILETYPE_PEM)\00", align 1
@.str.60 = private unnamed_addr constant [2 x i8] c"1\00", align 1
@.str.61 = private unnamed_addr constant [61 x i8] c"SSL_CTX_use_PrivateKey_file(ctx, key_file, SSL_FILETYPE_PEM)\00", align 1

; Function Attrs: nounwind uwtable
define internal i32 @ssl_ctx_configure(ptr noundef %0, i32 noundef %1) #0 {
  %3 = alloca i32, align 4
  %4 = alloca ptr, align 8
  %5 = alloca i32, align 4
  store ptr %0, ptr %4, align 8, !tbaa !44
  store i32 %1, ptr %5, align 4, !tbaa !9
  %6 = load ptr, ptr %4, align 8, !tbaa !44
  %7 = call i32 @ossl_quic_set_diag_title(ptr noundef %6, ptr noundef @.str.58)
  %8 = icmp ne i32 %7, 0
  %9 = zext i1 %8 to i32
  %10 = call i32 @test_true(ptr noundef @.str.44, i32 noundef 44, ptr noundef @.str.57, i32 noundef %9)
  %11 = icmp ne i32 %10, 0
  br i1 %11, label %13, label %12

12:                                               ; preds = %2
  store i32 0, ptr %3, align 4
  br label %37

13:                                               ; preds = %2
  %14 = load i32, ptr %5, align 4, !tbaa !9
  %15 = icmp ne i32 %14, 0
  br i1 %15, label %17, label %16

16:                                               ; preds = %13
  store i32 1, ptr %3, align 4
  br label %37

17:                                               ; preds = %13
  %18 = load ptr, ptr getelementptr inbounds nuw (%struct.radix_process_st, ptr @radix_process, i32 0, i32 7), align 8, !tbaa !76
  %19 = icmp ne ptr %18, null
  br i1 %19, label %20, label %22

20:                                               ; preds = %17
  %21 = load ptr, ptr %4, align 8, !tbaa !44
  call void @SSL_CTX_set_keylog_callback(ptr noundef %21, ptr noundef @keylog_cb)
  br label %22

22:                                               ; preds = %20, %17
  %23 = load ptr, ptr %4, align 8, !tbaa !44
  %24 = load ptr, ptr @cert_file, align 8, !tbaa !4
  %25 = call i32 @SSL_CTX_use_certificate_file(ptr noundef %23, ptr noundef %24, i32 noundef 1)
  %26 = call i32 @test_int_eq(ptr noundef @.str.44, i32 noundef 54, ptr noundef @.str.59, ptr noundef @.str.60, i32 noundef %25, i32 noundef 1)
  %27 = icmp ne i32 %26, 0
  br i1 %27, label %28, label %34

28:                                               ; preds = %22
  %29 = load ptr, ptr %4, align 8, !tbaa !44
  %30 = load ptr, ptr @key_file, align 8, !tbaa !4
  %31 = call i32 @SSL_CTX_use_PrivateKey_file(ptr noundef %29, ptr noundef %30, i32 noundef 1)
  %32 = call i32 @test_int_eq(ptr noundef @.str.44, i32 noundef 56, ptr noundef @.str.61, ptr noundef @.str.60, i32 noundef %31, i32 noundef 1)
  %33 = icmp ne i32 %32, 0
  br i1 %33, label %35, label %34

34:                                               ; preds = %28, %22
  store i32 0, ptr %3, align 4
  br label %37

35:                                               ; preds = %28
  %36 = load ptr, ptr %4, align 8, !tbaa !44
  call void @SSL_CTX_set_alpn_select_cb(ptr noundef %36, ptr noundef @ssl_ctx_select_alpn, ptr noundef null)
  store i32 1, ptr %3, align 4
  br label %37

37:                                               ; preds = %35, %34, %16, %12
  %38 = load i32, ptr %3, align 4
  ret i32 %38
}

; Function Attrs: inlinehint nounwind uwtable
define internal i32 @TERP_stk_pop(ptr noundef %0, ptr noundef %1, i64 noundef %2) #5 {
  %4 = alloca i32, align 4
  %5 = alloca ptr, align 8
  %6 = alloca ptr, align 8
  %7 = alloca i64, align 8
  store ptr %0, ptr %5, align 8, !tbaa !75
  store ptr %1, ptr %6, align 8, !tbaa !41
  store i64 %2, ptr %7, align 8, !tbaa !19
  %8 = load ptr, ptr %5, align 8, !tbaa !75
  %9 = getelementptr inbounds nuw %struct.terp_st, ptr %8, i32 0, i32 6
  %10 = load ptr, ptr %9, align 8, !tbaa !26
  %11 = load ptr, ptr %5, align 8, !tbaa !75
  %12 = getelementptr inbounds nuw %struct.terp_st, ptr %11, i32 0, i32 5
  %13 = load ptr, ptr %12, align 8, !tbaa !32
  %14 = ptrtoint ptr %10 to i64
  %15 = ptrtoint ptr %13 to i64
  %16 = sub i64 %14, %15
  %17 = load i64, ptr %7, align 8, !tbaa !19
  %18 = call i32 @test_size_t_ge(ptr noundef @.str.42, i32 noundef 629, ptr noundef @.str.55, ptr noundef @.str.56, i64 noundef %16, i64 noundef %17)
  %19 = icmp ne i32 %18, 0
  br i1 %19, label %21, label %20

20:                                               ; preds = %3
  store i32 0, ptr %4, align 4
  br label %32

21:                                               ; preds = %3
  %22 = load ptr, ptr %6, align 8, !tbaa !41
  %23 = load ptr, ptr %5, align 8, !tbaa !75
  %24 = getelementptr inbounds nuw %struct.terp_st, ptr %23, i32 0, i32 5
  %25 = load ptr, ptr %24, align 8, !tbaa !32
  %26 = load i64, ptr %7, align 8, !tbaa !19
  call void @llvm.memcpy.p0.p0.i64(ptr align 1 %22, ptr align 1 %25, i64 %26, i1 false)
  %27 = load i64, ptr %7, align 8, !tbaa !19
  %28 = load ptr, ptr %5, align 8, !tbaa !75
  %29 = getelementptr inbounds nuw %struct.terp_st, ptr %28, i32 0, i32 5
  %30 = load ptr, ptr %29, align 8, !tbaa !32
  %31 = getelementptr inbounds nuw i8, ptr %30, i64 %27
  store ptr %31, ptr %29, align 8, !tbaa !32
  store i32 1, ptr %4, align 4
  br label %32

32:                                               ; preds = %21, %20
  %33 = load i32, ptr %4, align 4
  ret i32 %33
}

; Function Attrs: nounwind uwtable
define internal i32 @hf_new_ssl(ptr noundef %0) #0 {
  %2 = alloca ptr, align 8
  %3 = alloca i32, align 4
  %4 = alloca ptr, align 8
  %5 = alloca ptr, align 8
  %6 = alloca ptr, align 8
  %7 = alloca ptr, align 8
  %8 = alloca i64, align 8
  %9 = alloca i32, align 4
  %10 = alloca i32, align 4
  store ptr %0, ptr %2, align 8, !tbaa !42
  call void @llvm.lifetime.start.p0(i64 4, ptr %3) #9
  store i32 0, ptr %3, align 4, !tbaa !9
  call void @llvm.lifetime.start.p0(i64 8, ptr %4) #9
  call void @llvm.lifetime.start.p0(i64 8, ptr %5) #9
  store ptr null, ptr %5, align 8, !tbaa !44
  call void @llvm.lifetime.start.p0(i64 8, ptr %6) #9
  call void @llvm.lifetime.start.p0(i64 8, ptr %7) #9
  call void @llvm.lifetime.start.p0(i64 8, ptr %8) #9
  call void @llvm.lifetime.start.p0(i64 4, ptr %9) #9
  call void @llvm.lifetime.start.p0(i64 4, ptr %10) #9
  br label %11

11:                                               ; preds = %1
  br label %12

12:                                               ; preds = %11
  call void @llvm.memset.p0.i64(ptr align 8 %8, i8 0, i64 8, i1 false)
  %13 = load ptr, ptr %2, align 8, !tbaa !42
  %14 = getelementptr inbounds nuw %struct.func_ctx_st, ptr %13, i32 0, i32 0
  %15 = load ptr, ptr %14, align 8, !tbaa !46
  %16 = call i32 @TERP_stk_pop(ptr noundef %15, ptr noundef %8, i64 noundef 8)
  %17 = icmp ne i32 %16, 0
  %18 = zext i1 %17 to i32
  %19 = call i32 @test_true(ptr noundef @.str.44, i32 noundef 183, ptr noundef @.str.45, i32 noundef %18)
  %20 = icmp ne i32 %19, 0
  br i1 %20, label %22, label %21

21:                                               ; preds = %12
  br label %130

22:                                               ; preds = %12
  br label %23

23:                                               ; preds = %22
  br label %24

24:                                               ; preds = %23
  br label %25

25:                                               ; preds = %24
  call void @llvm.memset.p0.i64(ptr align 8 %4, i8 0, i64 8, i1 false)
  %26 = load ptr, ptr %2, align 8, !tbaa !42
  %27 = getelementptr inbounds nuw %struct.func_ctx_st, ptr %26, i32 0, i32 0
  %28 = load ptr, ptr %27, align 8, !tbaa !46
  %29 = call i32 @TERP_stk_pop(ptr noundef %28, ptr noundef %4, i64 noundef 8)
  %30 = icmp ne i32 %29, 0
  %31 = zext i1 %30 to i32
  %32 = call i32 @test_true(ptr noundef @.str.44, i32 noundef 183, ptr noundef @.str.46, i32 noundef %31)
  %33 = icmp ne i32 %32, 0
  br i1 %33, label %35, label %34

34:                                               ; preds = %25
  br label %130

35:                                               ; preds = %25
  br label %36

36:                                               ; preds = %35
  br label %37

37:                                               ; preds = %36
  br label %38

38:                                               ; preds = %37
  br label %39

39:                                               ; preds = %38
  %40 = load i64, ptr %8, align 8, !tbaa !19
  %41 = and i64 %40, 2
  %42 = icmp ne i64 %41, 0
  %43 = zext i1 %42 to i32
  store i32 %43, ptr %10, align 4, !tbaa !9
  %44 = load i64, ptr %8, align 8, !tbaa !19
  %45 = and i64 %44, 1
  %46 = icmp ne i64 %45, 0
  %47 = zext i1 %46 to i32
  store i32 %47, ptr %9, align 4, !tbaa !9
  %48 = load i32, ptr %9, align 4, !tbaa !9
  %49 = icmp ne i32 %48, 0
  br i1 %49, label %50, label %52

50:                                               ; preds = %39
  %51 = call ptr @OSSL_QUIC_server_method()
  br label %54

52:                                               ; preds = %39
  %53 = call ptr @OSSL_QUIC_client_method()
  br label %54

54:                                               ; preds = %52, %50
  %55 = phi ptr [ %51, %50 ], [ %53, %52 ]
  store ptr %55, ptr %6, align 8, !tbaa !47
  %56 = load ptr, ptr %6, align 8, !tbaa !47
  %57 = call ptr @SSL_CTX_new(ptr noundef %56)
  store ptr %57, ptr %5, align 8, !tbaa !44
  %58 = call i32 @test_ptr(ptr noundef @.str.44, i32 noundef 189, ptr noundef @.str.47, ptr noundef %57)
  %59 = icmp ne i32 %58, 0
  br i1 %59, label %61, label %60

60:                                               ; preds = %54
  br label %130

61:                                               ; preds = %54
  %62 = load ptr, ptr %5, align 8, !tbaa !44
  %63 = call i32 @SSL_CTX_set_domain_flags(ptr noundef %62, i64 noundef 10)
  %64 = icmp ne i32 %63, 0
  %65 = zext i1 %64 to i32
  %66 = call i32 @test_true(ptr noundef @.str.44, i32 noundef 195, ptr noundef @.str.48, i32 noundef %65)
  %67 = icmp ne i32 %66, 0
  br i1 %67, label %69, label %68

68:                                               ; preds = %61
  br label %130

69:                                               ; preds = %61
  %70 = load ptr, ptr %5, align 8, !tbaa !44
  %71 = load i32, ptr %9, align 4, !tbaa !9
  %72 = call i32 @ssl_ctx_configure(ptr noundef %70, i32 noundef %71)
  %73 = icmp ne i32 %72, 0
  %74 = zext i1 %73 to i32
  %75 = call i32 @test_true(ptr noundef @.str.44, i32 noundef 199, ptr noundef @.str.49, i32 noundef %74)
  %76 = icmp ne i32 %75, 0
  br i1 %76, label %78, label %77

77:                                               ; preds = %69
  br label %130

78:                                               ; preds = %69
  %79 = load i32, ptr %10, align 4, !tbaa !9
  %80 = icmp ne i32 %79, 0
  br i1 %80, label %81, label %88

81:                                               ; preds = %78
  %82 = load ptr, ptr %5, align 8, !tbaa !44
  %83 = call ptr @SSL_new_domain(ptr noundef %82, i64 noundef 0)
  store ptr %83, ptr %7, align 8, !tbaa !49
  %84 = call i32 @test_ptr(ptr noundef @.str.44, i32 noundef 203, ptr noundef @.str.50, ptr noundef %83)
  %85 = icmp ne i32 %84, 0
  br i1 %85, label %87, label %86

86:                                               ; preds = %81
  br label %130

87:                                               ; preds = %81
  br label %108

88:                                               ; preds = %78
  %89 = load i32, ptr %9, align 4, !tbaa !9
  %90 = icmp ne i32 %89, 0
  br i1 %90, label %91, label %100

91:                                               ; preds = %88
  %92 = load ptr, ptr %5, align 8, !tbaa !44
  call void @SSL_CTX_set_new_pending_conn_cb(ptr noundef %92, ptr noundef @new_pending_cb, ptr noundef null)
  %93 = load ptr, ptr %5, align 8, !tbaa !44
  call void @SSL_CTX_set_client_hello_cb(ptr noundef %93, ptr noundef @client_hello_cb, ptr noundef null)
  store i32 1, ptr @check_pending_match, align 4, !tbaa !9
  %94 = load ptr, ptr %5, align 8, !tbaa !44
  %95 = call ptr @SSL_new_listener(ptr noundef %94, i64 noundef 0)
  store ptr %95, ptr %7, align 8, !tbaa !49
  %96 = call i32 @test_ptr(ptr noundef @.str.44, i32 noundef 210, ptr noundef @.str.51, ptr noundef %95)
  %97 = icmp ne i32 %96, 0
  br i1 %97, label %99, label %98

98:                                               ; preds = %91
  br label %130

99:                                               ; preds = %91
  br label %107

100:                                              ; preds = %88
  %101 = load ptr, ptr %5, align 8, !tbaa !44
  %102 = call ptr @SSL_new(ptr noundef %101)
  store ptr %102, ptr %7, align 8, !tbaa !49
  %103 = call i32 @test_ptr(ptr noundef @.str.44, i32 noundef 213, ptr noundef @.str.52, ptr noundef %102)
  %104 = icmp ne i32 %103, 0
  br i1 %104, label %106, label %105

105:                                              ; preds = %100
  br label %130

106:                                              ; preds = %100
  br label %107

107:                                              ; preds = %106, %99
  br label %108

108:                                              ; preds = %107, %87
  %109 = load i32, ptr %10, align 4, !tbaa !9
  %110 = icmp ne i32 %109, 0
  br i1 %110, label %119, label %111

111:                                              ; preds = %108
  %112 = load ptr, ptr %7, align 8, !tbaa !49
  %113 = call i32 @ssl_attach_bio_dgram(ptr noundef %112, i16 noundef zeroext 0, ptr noundef null)
  %114 = icmp ne i32 %113, 0
  %115 = zext i1 %114 to i32
  %116 = call i32 @test_true(ptr noundef @.str.44, i32 noundef 217, ptr noundef @.str.53, i32 noundef %115)
  %117 = icmp ne i32 %116, 0
  br i1 %117, label %119, label %118

118:                                              ; preds = %111
  br label %130

119:                                              ; preds = %111, %108
  %120 = load ptr, ptr %4, align 8, !tbaa !4
  %121 = load ptr, ptr %7, align 8, !tbaa !49
  %122 = call i32 @RADIX_PROCESS_set_ssl(ptr noundef @radix_process, ptr noundef %120, ptr noundef %121)
  %123 = icmp ne i32 %122, 0
  %124 = zext i1 %123 to i32
  %125 = call i32 @test_true(ptr noundef @.str.44, i32 noundef 220, ptr noundef @.str.54, i32 noundef %124)
  %126 = icmp ne i32 %125, 0
  br i1 %126, label %129, label %127

127:                                              ; preds = %119
  %128 = load ptr, ptr %7, align 8, !tbaa !49
  call void @SSL_free(ptr noundef %128)
  br label %130

129:                                              ; preds = %119
  store i32 1, ptr %3, align 4, !tbaa !9
  br label %130

130:                                              ; preds = %129, %127, %118, %105, %98, %86, %77, %68, %60, %34, %21
  %131 = load ptr, ptr %5, align 8, !tbaa !44
  call void @SSL_CTX_free(ptr noundef %131)
  %132 = load i32, ptr %3, align 4, !tbaa !9
  call void @llvm.lifetime.end.p0(i64 4, ptr %10) #9
  call void @llvm.lifetime.end.p0(i64 4, ptr %9) #9
  call void @llvm.lifetime.end.p0(i64 8, ptr %8) #9
  call void @llvm.lifetime.end.p0(i64 8, ptr %7) #9
  call void @llvm.lifetime.end.p0(i64 8, ptr %6) #9
  call void @llvm.lifetime.end.p0(i64 8, ptr %5) #9
  call void @llvm.lifetime.end.p0(i64 8, ptr %4) #9
  call void @llvm.lifetime.end.p0(i64 4, ptr %3) #9
  ret i32 %132
}