; Function Attrs: nounwind uwtable
define internal range(i32 0, 2) i32 @hf_new_ssl(ptr noundef readonly captures(none) %0) #1 {
  %2 = load ptr, ptr %0, align 8, !tbaa !107
  %3 = getelementptr inbounds nuw i8, ptr %2, i64 112
  %4 = load ptr, ptr %3, align 8, !tbaa !100
  %5 = getelementptr inbounds nuw i8, ptr %2, i64 104
  %6 = load ptr, ptr %5, align 8, !tbaa !95
  %7 = ptrtoint ptr %4 to i64
  %8 = ptrtoint ptr %6 to i64
  %9 = sub i64 %7, %8
  %10 = tail call i32 @test_size_t_ge(ptr noundef nonnull @.str.42, i32 noundef 629, ptr noundef nonnull @.str.55, ptr noundef nonnull @.str.56, i64 noundef %9, i64 noundef 8) #12
  %.not.i = icmp eq i32 %10, 0
  br i1 %.not.i, label %TERP_stk_pop.exit, label %11

11:                                               ; preds = %1
  %12 = load ptr, ptr %5, align 8, !tbaa !95
  %13 = load i64, ptr %12, align 1
  %14 = getelementptr inbounds nuw i8, ptr %12, i64 8
  store ptr %14, ptr %5, align 8, !tbaa !95
  br label %TERP_stk_pop.exit

TERP_stk_pop.exit:                                ; preds = %1, %11
  %.037 = phi i64 [ 0, %1 ], [ %13, %11 ]
  %.0.i = phi i32 [ 0, %1 ], [ 1, %11 ]
  %15 = tail call i32 @test_true(ptr noundef nonnull @.str.44, i32 noundef 183, ptr noundef nonnull @.str.45, i32 noundef %.0.i) #12
  %.not = icmp eq i32 %15, 0
  br i1 %.not, label %84, label %16

16:                                               ; preds = %TERP_stk_pop.exit
  %17 = load ptr, ptr %0, align 8, !tbaa !107
  %18 = getelementptr inbounds nuw i8, ptr %17, i64 112
  %19 = load ptr, ptr %18, align 8, !tbaa !100
  %20 = getelementptr inbounds nuw i8, ptr %17, i64 104
  %21 = load ptr, ptr %20, align 8, !tbaa !95
  %22 = ptrtoint ptr %19 to i64
  %23 = ptrtoint ptr %21 to i64
  %24 = sub i64 %22, %23
  %25 = tail call i32 @test_size_t_ge(ptr noundef nonnull @.str.42, i32 noundef 629, ptr noundef nonnull @.str.55, ptr noundef nonnull @.str.56, i64 noundef %24, i64 noundef 8) #12
  %.not.i32 = icmp eq i32 %25, 0
  br i1 %.not.i32, label %TERP_stk_pop.exit34, label %26

26:                                               ; preds = %16
  %27 = load ptr, ptr %20, align 8, !tbaa !95
  %28 = load i64, ptr %27, align 1
  %29 = inttoptr i64 %28 to ptr
  %30 = getelementptr inbounds nuw i8, ptr %27, i64 8
  store ptr %30, ptr %20, align 8, !tbaa !95
  br label %TERP_stk_pop.exit34

TERP_stk_pop.exit34:                              ; preds = %16, %26
  %.038 = phi ptr [ null, %16 ], [ %29, %26 ]
  %.0.i33 = phi i32 [ 0, %16 ], [ 1, %26 ]
  %31 = tail call i32 @test_true(ptr noundef nonnull @.str.44, i32 noundef 183, ptr noundef nonnull @.str.46, i32 noundef %.0.i33) #12
  %.not21 = icmp eq i32 %31, 0
  br i1 %.not21, label %84, label %32

32:                                               ; preds = %TERP_stk_pop.exit34
  %33 = and i64 %.037, 2
  %.not22 = icmp eq i64 %33, 0
  %34 = and i64 %.037, 1
  %.not23 = icmp eq i64 %34, 0
  br i1 %.not23, label %37, label %35

35:                                               ; preds = %32
  %36 = tail call ptr @OSSL_QUIC_server_method() #12
  br label %39

37:                                               ; preds = %32
  %38 = tail call ptr @OSSL_QUIC_client_method() #12
  br label %39

39:                                               ; preds = %37, %35
  %40 = phi ptr [ %36, %35 ], [ %38, %37 ]
  %41 = tail call ptr @SSL_CTX_new(ptr noundef %40) #12
  %42 = tail call i32 @test_ptr(ptr noundef nonnull @.str.44, i32 noundef 189, ptr noundef nonnull @.str.47, ptr noundef %41) #12
  %.not24 = icmp eq i32 %42, 0
  br i1 %.not24, label %84, label %43

43:                                               ; preds = %39
  %44 = tail call i32 @SSL_CTX_set_domain_flags(ptr noundef %41, i64 noundef 10) #12
  %45 = icmp ne i32 %44, 0
  %46 = zext i1 %45 to i32
  %47 = tail call i32 @test_true(ptr noundef nonnull @.str.44, i32 noundef 195, ptr noundef nonnull @.str.48, i32 noundef %46) #12
  %.not25 = icmp eq i32 %47, 0
  br i1 %.not25, label %84, label %48

48:                                               ; preds = %43
  %49 = tail call i32 @ossl_quic_set_diag_title(ptr noundef %41, ptr noundef nonnull @.str.58) #12
  %50 = icmp ne i32 %49, 0
  %51 = zext i1 %50 to i32
  %52 = tail call i32 @test_true(ptr noundef nonnull @.str.44, i32 noundef 44, ptr noundef nonnull @.str.57, i32 noundef %51) #12
  %.not.i35 = icmp eq i32 %52, 0
  %brmerge = or i1 %.not.i35, %.not23
  %not..not.i35 = xor i1 %.not.i35, true
  %.mux = zext i1 %not..not.i35 to i32
  br i1 %brmerge, label %ssl_ctx_configure.exit, label %53

53:                                               ; preds = %48
  %54 = load ptr, ptr getelementptr inbounds nuw (i8, ptr @radix_process, i64 56), align 8, !tbaa !20
  %.not7.i = icmp eq ptr %54, null
  br i1 %.not7.i, label %56, label %55

55:                                               ; preds = %53
  tail call void @SSL_CTX_set_keylog_callback(ptr noundef %41, ptr noundef nonnull @keylog_cb) #12
  br label %56

56:                                               ; preds = %55, %53
  %57 = load ptr, ptr @cert_file, align 8, !tbaa !43
  %58 = tail call i32 @SSL_CTX_use_certificate_file(ptr noundef %41, ptr noundef %57, i32 noundef 1) #12
  %59 = tail call i32 @test_int_eq(ptr noundef nonnull @.str.44, i32 noundef 54, ptr noundef nonnull @.str.59, ptr noundef nonnull @.str.60, i32 noundef %58, i32 noundef 1) #12
  %.not8.i = icmp eq i32 %59, 0
  br i1 %.not8.i, label %ssl_ctx_configure.exit, label %60

60:                                               ; preds = %56
  %61 = load ptr, ptr @key_file, align 8, !tbaa !43
  %62 = tail call i32 @SSL_CTX_use_PrivateKey_file(ptr noundef %41, ptr noundef %61, i32 noundef 1) #12
  %63 = tail call i32 @test_int_eq(ptr noundef nonnull @.str.44, i32 noundef 56, ptr noundef nonnull @.str.61, ptr noundef nonnull @.str.60, i32 noundef %62, i32 noundef 1) #12
  %.not9.i = icmp eq i32 %63, 0
  br i1 %.not9.i, label %ssl_ctx_configure.exit, label %64

64:                                               ; preds = %60
  tail call void @SSL_CTX_set_alpn_select_cb(ptr noundef %41, ptr noundef nonnull @ssl_ctx_select_alpn, ptr noundef null) #12
  br label %ssl_ctx_configure.exit

ssl_ctx_configure.exit:                           ; preds = %48, %56, %60, %64
  %.0.i36 = phi i32 [ 1, %64 ], [ %.mux, %48 ], [ 0, %60 ], [ 0, %56 ]
  %65 = tail call i32 @test_true(ptr noundef nonnull @.str.44, i32 noundef 199, ptr noundef nonnull @.str.49, i32 noundef %.0.i36) #12
  %.not26 = icmp eq i32 %65, 0
  br i1 %.not26, label %84, label %66

66:                                               ; preds = %ssl_ctx_configure.exit
  br i1 %.not22, label %70, label %67

67:                                               ; preds = %66
  %68 = tail call ptr @SSL_new_domain(ptr noundef %41, i64 noundef 0) #12
  %69 = tail call i32 @test_ptr(ptr noundef nonnull @.str.44, i32 noundef 203, ptr noundef nonnull @.str.50, ptr noundef %68) #12
  %.not29 = icmp eq i32 %69, 0
  br i1 %.not29, label %84, label %80

70:                                               ; preds = %66
  br i1 %.not23, label %74, label %71

71:                                               ; preds = %70
  tail call void @SSL_CTX_set_new_pending_conn_cb(ptr noundef %41, ptr noundef nonnull @new_pending_cb, ptr noundef null) #12
  tail call void @SSL_CTX_set_client_hello_cb(ptr noundef %41, ptr noundef nonnull @client_hello_cb, ptr noundef null) #12
  store i1 true, ptr @check_pending_match, align 4
  %72 = tail call ptr @SSL_new_listener(ptr noundef %41, i64 noundef 0) #12
  %73 = tail call i32 @test_ptr(ptr noundef nonnull @.str.44, i32 noundef 210, ptr noundef nonnull @.str.51, ptr noundef %72) #12
  %.not28 = icmp eq i32 %73, 0
  br i1 %.not28, label %84, label %77

74:                                               ; preds = %70
  %75 = tail call ptr @SSL_new(ptr noundef %41) #12
  %76 = tail call i32 @test_ptr(ptr noundef nonnull @.str.44, i32 noundef 213, ptr noundef nonnull @.str.52, ptr noundef %75) #12
  %.not27 = icmp eq i32 %76, 0
  br i1 %.not27, label %84, label %77

77:                                               ; preds = %71, %74
  %.020.ph = phi ptr [ %75, %74 ], [ %72, %71 ]
  %78 = tail call fastcc i32 @ssl_attach_bio_dgram(ptr noundef %.020.ph)
  %79 = tail call i32 @test_true(ptr noundef nonnull @.str.44, i32 noundef 217, ptr noundef nonnull @.str.53, i32 noundef %78) #12
  %.not30 = icmp eq i32 %79, 0
  br i1 %.not30, label %84, label %80

80:                                               ; preds = %67, %77
  %.02040 = phi ptr [ %.020.ph, %77 ], [ %68, %67 ]
  %81 = tail call fastcc i32 @RADIX_PROCESS_set_ssl(ptr noundef %.038, ptr noundef %.02040)
  %82 = tail call i32 @test_true(ptr noundef nonnull @.str.44, i32 noundef 220, ptr noundef nonnull @.str.54, i32 noundef %81) #12
  %.not31 = icmp eq i32 %82, 0
  br i1 %.not31, label %83, label %84

83:                                               ; preds = %80
  tail call void @SSL_free(ptr noundef %.02040) #12
  br label %84

84:                                               ; preds = %80, %77, %74, %71, %67, %ssl_ctx_configure.exit, %43, %39, %TERP_stk_pop.exit34, %TERP_stk_pop.exit, %83
  %.019 = phi ptr [ %41, %83 ], [ %41, %77 ], [ %41, %67 ], [ %41, %71 ], [ %41, %74 ], [ %41, %ssl_ctx_configure.exit ], [ %41, %43 ], [ %41, %39 ], [ null, %TERP_stk_pop.exit34 ], [ null, %TERP_stk_pop.exit ], [ %41, %80 ]
  %.0 = phi i32 [ 0, %83 ], [ 0, %77 ], [ 0, %67 ], [ 0, %71 ], [ 0, %74 ], [ 0, %ssl_ctx_configure.exit ], [ 0, %43 ], [ 0, %39 ], [ 0, %TERP_stk_pop.exit34 ], [ 0, %TERP_stk_pop.exit ], [ 1, %80 ]
  tail call void @SSL_CTX_free(ptr noundef %.019) #12
  ret i32 %.0
}